(dp0
Vengine
p1
Vpdflatex
p2
sVpackages
p3
c__builtin__
set
p4
((lp5
tp6
Rp7
sVfiles_with_guttermarks
p8
g4
((lp9
S'1-msc-titlepage-EN.tex'
p10
aV/Users/nuno/Documents/svn/gestao/templates/thesis-template/thesis-template-latex/frontmatter/./1-msc-titlepage-EN.tex
p11
atp12
Rp13
sVsynctex
p14
I01
s.