(dp0
Vengine
p1
S'pdflatex'
p2
sVpackages
p3
c__builtin__
set
p4
((lp5
tp6
Rp7
sVfiles_with_guttermarks
p8
g4
((lp9
S'0-cover.tex'
p10
aV/Users/nuno/Documents/svn/gestao/2016-mei-coordenacao/template-msc/EN_LATEX_template_report/text/./0-cover.tex
p11
aV/Users/nuno/Documents/svn/gestao/2016-mei-coordenacao/template-msc/EN_LATEX_template_report/texfiles/./0-cover.tex
p12
atp13
Rp14
sVsynctex
p15
I01
s.