(dp0
Vengine
p1
Vpdflatex
p2
sVpackages
p3
c__builtin__
set
p4
((lp5
tp6
Rp7
sVfiles_with_guttermarks
p8
g4
((lp9
V/Users/nuno/Documents/svn/gestao/mei/msc-thesis-template/EN_LATEX_template/text/./0-titlepage-EN.tex
p10
aS'0-titlepage-EN.tex'
p11
aV/Users/nuno/Documents/svn/gestao/2016-mei-coordenacao/template-msc/v2/EN_LATEX_template/text/./0-titlepage-EN.tex
p12
aV/Users/nuno/Documents/svn/gestao/2016-mei-coordenacao/template-msc/v2/EN_LATEX_template/text/0-titlepage-EN.tex
p13
atp14
Rp15
sVsynctex
p16
I01
s.