(dp0
Vengine
p1
S'pdflatex'
p2
sVpackages
p3
c__builtin__
set
p4
((lp5
tp6
Rp7
sVfiles_with_guttermarks
p8
g4
((lp9
S'0-titlepage-PT.tex'
p10
aV/Users/nuno/Documents/svn/gestao/2016-mei-coordenacao/template-msc/v2/EN_LATEX_template/text/./0-titlepage-PT.tex
p11
aV/Users/nuno/Documents/svn/gestao/2016-mei-coordenacao/template-msc/v2/EN_LATEX_template/text/0-titlepage-PT.tex
p12
atp13
Rp14
sVsynctex
p15
I01
s.