(dp0
Vengine
p1
Vpdflatex
p2
sVpackages
p3
c__builtin__
set
p4
((lp5
tp6
Rp7
sVfiles_with_guttermarks
p8
g4
((lp9
V/Users/nuno/Documents/svn/gestao/2016-mei-coordenacao/template-msc/EN_LATEX_template_report/text/./1-introduction.tex
p10
aV/Users/nuno/Documents/svn/gestao/2016-mei-coordenacao/template-msc/EN_LATEX_template_report/text/1-introduction.tex
p11
aV/Users/nuno/Documents/svn/gestao/2016-mei-coordenacao/template-msc/EN_LATEX/text/1-introduction.tex
p12
aV/Users/nuno/Documents/svn/gestao/2016-mei-coordenacao/template-msc/EN_LATEX/text/./1-introduction.tex
p13
aV/Users/nuno/Documents/svn/gestao/2016-mei-coordenacao/template-msc/v2/EN_LATEX_template/text/1-introduction.tex
p14
aV/Users/nuno/Documents/svn/gestao/templates/thesis-template/thesis-template-latex/text/./1-introduction.tex
p15
aV/Users/nuno/Documents/svn/gestao/2016-mei-coordenacao/template-msc/v2/EN_LATEX_template/text/./1-introduction.tex
p16
aV/Users/nuno/Documents/svn/gestao/templates/thesis-template/thesis-template-latex/text/1-introduction.tex
p17
aS'1-introduction.tex'
p18
atp19
Rp20
sVsynctex
p21
I01
s.