(dp0
Vengine
p1
S'pdflatex'
p2
sVpackages
p3
c__builtin__
set
p4
((lp5
tp6
Rp7
sVfiles_with_guttermarks
p8
g4
((lp9
V/Users/nuno/Documents/svn/gestao/2016-mei-coordenacao/template-msc/v2/EN_LATEX_template/text/./9-appendices.tex
p10
aS'9-appendices.tex'
p11
atp12
Rp13
sVsynctex
p14
I01
s.