(dp0
Vengine
p1
Vpdflatex
p2
sVpackages
p3
c__builtin__
set
p4
((lp5
Vpdflscape
p6
aVnatbib
p7
aVxcolor
p8
aVglossaries
p9
aVmathpazo
p10
aVhyperref
p11
aVgeometry
p12
aVbabel
p13
aVfancyhdr
p14
aVvhistory
p15
aVsubcaption
p16
aVcolor
p17
aVappendix
p18
aVpdfpages
p19
aVfontenc
p20
aVgraphicx
p21
aVnotoccite
p22
aVchangepage
p23
aVinputenc
p24
aVtodonotes
p25
aVtabularx
p26
atp27
Rp28
sVfiles_with_guttermarks
p29
g4
((lp30
V/Users/nuno/Documents/svn/gestao/2016-mei-coordenacao/template-msc/v2/EN_LATEX_template/./text/9-appendices.tex
p31
aV/Users/nuno/Documents/svn/gestao/mei/msc-thesis-template/EN_LATEX_template/./text/0-funding.tex
p32
aV/Users/nuno/Documents/svn/gestao/mei/msc-thesis-template/EN_LATEX_template/./text/9-appendices.tex
p33
aV/Users/nuno/Documents/svn/gestao/2019-mei-coordenacao/template-msc/v5/EN_LATEX_template/./main.tex
p34
aV/Users/nuno/Documents/svn/gestao/2016-mei-coordenacao/template-msc/v2/EN_LATEX_template/main.tex
p35
aV/Users/nuno/Documents/svn/gestao/mei/msc-thesis-template/EN_LATEX_template/text/0-funding.tex
p36
aV/Users/nuno/Documents/svn/gestao/mei/msc-thesis-template/EN_LATEX_template/./main.tex
p37
aV/Users/nuno/Documents/svn/gestao/mei/msc-thesis-template/EN_LATEX_template/./text/1-introduction.tex
p38
aS'main.tex'
p39
aV/Users/nuno/Documents/svn/gestao/mei/msc-thesis-template/EN_LATEX_template/./text/0-abstract-EN.tex
p40
aV/Users/nuno/Documents/svn/gestao/2016-mei-coordenacao/template-msc/v2/EN_LATEX_template/./main.tex
p41
aV/Users/nuno/Documents/svn/gestao/mei/msc-thesis-template/EN_LATEX_template/./text/0-acknowledgements.tex
p42
aV/Users/nuno/Documents/svn/gestao/2016-mei-coordenacao/template-msc/v2/EN_LATEX_template/./text/0-titlepage-EN.tex
p43
aV/Users/nuno/Documents/svn/gestao/mei/msc-thesis-template/EN_LATEX_template/./text/0-abstract-PT.tex
p44
atp45
Rp46
sVsynctex
p47
I01
s.